target datalayout = "e-m:e-p270:32:32-p271:32:32-p272:64:64-i64:64-i128:128-f80:128-n8:16:32:64-S128"
target triple = "x86_64-pc-linux-gnu"

%struct.hwloc_tma = type { ptr, ptr, i32 }

; Function Attrs: nounwind uwtable
define internal ptr @tma_shmem_malloc(ptr noundef %0, i64 noundef %1) #0 {
  %3 = alloca ptr, align 8
  %4 = alloca i64, align 8
  %5 = alloca ptr, align 8
  store ptr %0, ptr %3, align 8, !tbaa !18
  store i64 %1, ptr %4, align 8, !tbaa !10
  call void @llvm.lifetime.start.p0(i64 8, ptr %5) #7
  %6 = load ptr, ptr %3, align 8, !tbaa !18
  %7 = getelementptr inbounds nuw %struct.hwloc_tma, ptr %6, i32 0, i32 1
  %8 = load ptr, ptr %7, align 8, !tbaa !17
  store ptr %8, ptr %5, align 8, !tbaa !20
  %9 = load ptr, ptr %3, align 8, !tbaa !18
  %10 = getelementptr inbounds nuw %struct.hwloc_tma, ptr %9, i32 0, i32 1
  %11 = load ptr, ptr %10, align 8, !tbaa !17
  %12 = load i64, ptr %4, align 8, !tbaa !10
  %13 = add i64 %12, 8
  %14 = sub i64 %13, 1
  %15 = and i64 %14, -8
  %16 = getelementptr inbounds nuw i8, ptr %11, i64 %15
  %17 = load ptr, ptr %3, align 8, !tbaa !18
  %18 = getelementptr inbounds nuw %struct.hwloc_tma, ptr %17, i32 0, i32 1
  store ptr %16, ptr %18, align 8, !tbaa !17
  %19 = load ptr, ptr %5, align 8, !tbaa !20
  call void @llvm.lifetime.end.p0(i64 8, ptr %5) #7
  ret ptr %19
}