; Function Attrs: mustprogress nofree norecurse nosync nounwind willreturn memory(argmem: readwrite) uwtable
define internal ptr @tma_shmem_malloc(ptr noundef captures(none) %0, i64 noundef %1) #7 {
  %3 = getelementptr inbounds nuw i8, ptr %0, i64 8
  %4 = load ptr, ptr %3, align 8, !tbaa !13
  %5 = add i64 %1, 7
  %6 = and i64 %5, -8
  %7 = getelementptr inbounds nuw i8, ptr %4, i64 %6
  store ptr %7, ptr %3, align 8, !tbaa !13
  ret ptr %4
}